target datalayout = "e-m:e-p270:32:32-p271:32:32-p272:64:64-i64:64-i128:128-f80:128-n8:16:32:64-S128"
target triple = "x86_64-pc-linux-gnu"

%union.pthread_mutex_t = type { %struct.__pthread_mutex_s }
%struct.__pthread_mutex_s = type { i32, i32, i32, i32, i32, i16, i16, %struct.__pthread_internal_list }
%struct.__pthread_internal_list = type { ptr, ptr }
%struct.slurmdb_cluster_rec = type { ptr, i16, i64, %struct.sockaddr_storage, ptr, i32, i16, ptr, i16, %struct.slurmdb_cluster_fed_t, i32, %union.pthread_mutex_t, ptr, ptr, ptr, i16, ptr, ptr }
%struct.sockaddr_storage = type { i16, [118 x i8], i64 }
%struct.slurmdb_cluster_fed_t = type { ptr, i32, ptr, ptr, ptr, i32, i8, i8 }

@fed_mgr_cluster_rec = dso_local global ptr null, align 8

; Function Attrs: nounwind uwtable
define dso_local i32 @fed_mgr_get_job_id(i32 noundef %0) #0 {
  %2 = alloca i32, align 4
  %3 = alloca i32, align 4
  store i32 %0, ptr %3, align 4
  %4 = load ptr, ptr @fed_mgr_cluster_rec, align 8
  %5 = icmp ne ptr %4, null
  br i1 %5, label %8, label %6

6:                                                ; preds = %1
  %7 = load i32, ptr %3, align 4
  store i32 %7, ptr %2, align 4
  br label %16

8:                                                ; preds = %1
  %9 = load i32, ptr %3, align 4
  %10 = load ptr, ptr @fed_mgr_cluster_rec, align 8
  %11 = getelementptr inbounds nuw %struct.slurmdb_cluster_rec, ptr %10, i32 0, i32 9
  %12 = getelementptr inbounds nuw %struct.slurmdb_cluster_fed_t, ptr %11, i32 0, i32 1
  %13 = load i32, ptr %12, align 8
  %14 = shl i32 %13, 26
  %15 = add i32 %9, %14
  store i32 %15, ptr %2, align 4
  br label %16

16:                                               ; preds = %8, %6
  %17 = load i32, ptr %2, align 4
  ret i32 %17
}