; Function Attrs: mustprogress nofree norecurse nosync nounwind willreturn memory(read, inaccessiblemem: none) uwtable
define dso_local i32 @fed_mgr_get_job_id(i32 noundef %0) local_unnamed_addr #9 {
  %2 = load ptr, ptr @fed_mgr_cluster_rec, align 8
  %.not = icmp eq ptr %2, null
  br i1 %.not, label %8, label %3

3:                                                ; preds = %1
  %4 = getelementptr inbounds nuw i8, ptr %2, i64 192
  %5 = load i32, ptr %4, align 8
  %6 = shl i32 %5, 26
  %7 = add i32 %6, %0
  br label %8

8:                                                ; preds = %1, %3
  %.0 = phi i32 [ %7, %3 ], [ %0, %1 ]
  ret i32 %.0
}